; Function Attrs: mustprogress uwtable
define noundef nonnull ptr @_ZNK8RichEnum5cloneEv(ptr noundef nonnull align 8 dereferenceable(64) %0) unnamed_addr #1 align 2 personality ptr @__gxx_personality_v0 {
  %2 = tail call noalias noundef nonnull dereferenceable(64) ptr @_Znwm(i64 noundef 64) #13
  invoke void @_ZN13RichParameterC2ERKS_(ptr noundef nonnull align 8 dereferenceable(56) %2, ptr noundef nonnull align 8 dereferenceable(56) %0)
          to label %.noexc unwind label %38

.noexc:                                           ; preds = %1
  store ptr getelementptr inbounds ({ [8 x ptr] }, ptr @_ZTV8RichEnum, i64 0, i32 0, i64 2), ptr %2, align 8
  %3 = getelementptr inbounds i8, ptr %2, i64 56
  %4 = getelementptr inbounds i8, ptr %0, i64 56
  %5 = load ptr, ptr %4, align 8
  store ptr %5, ptr %3, align 8
  %6 = load atomic i32, ptr %5 monotonic, align 4
  %7 = add i32 %6, -1
  %or.cond.not.i.i.i.i = icmp ult i32 %7, -2
  br i1 %or.cond.not.i.i.i.i, label %_ZN9QtPrivate8RefCount3refEv.exit.thread.i.i.i, label %_ZN9QtPrivate8RefCount3refEv.exit.i.i.i

_ZN9QtPrivate8RefCount3refEv.exit.thread.i.i.i:   ; preds = %.noexc
  %8 = atomicrmw add ptr %5, i32 1 seq_cst, align 4
  br label %_ZN8RichEnumC2ERKS_.exit

_ZN9QtPrivate8RefCount3refEv.exit.i.i.i:          ; preds = %.noexc
  %.not.i.i.i = icmp eq i32 %6, 0
  br i1 %.not.i.i.i, label %9, label %_ZN8RichEnumC2ERKS_.exit

9:                                                ; preds = %_ZN9QtPrivate8RefCount3refEv.exit.i.i.i
  %10 = getelementptr inbounds i8, ptr %5, i64 4
  %11 = load i32, ptr %10, align 4
  %12 = invoke noundef ptr @_ZN9QListData6detachEi(ptr noundef nonnull align 8 dereferenceable(8) %3, i32 noundef %11)
          to label %.noexc.i unwind label %36

.noexc.i:                                         ; preds = %9
  %13 = load ptr, ptr %3, align 8
  %14 = getelementptr i8, ptr %13, i64 16
  %15 = getelementptr inbounds i8, ptr %13, i64 8
  %16 = load i32, ptr %15, align 8
  %17 = getelementptr inbounds i8, ptr %13, i64 12
  %18 = load i32, ptr %17, align 4
  %19 = sext i32 %18 to i64
  %20 = getelementptr inbounds ptr, ptr %14, i64 %19
  %.not8.i.i.i.i = icmp eq i32 %16, %18
  br i1 %.not8.i.i.i.i, label %_ZN8RichEnumC2ERKS_.exit, label %.lr.ph.i.preheader.i.i.i

.lr.ph.i.preheader.i.i.i:                         ; preds = %.noexc.i
  %21 = load ptr, ptr %4, align 8
  %22 = getelementptr inbounds i8, ptr %21, i64 16
  %23 = getelementptr inbounds i8, ptr %21, i64 8
  %24 = load i32, ptr %23, align 8
  %25 = sext i32 %24 to i64
  %26 = getelementptr inbounds ptr, ptr %22, i64 %25
  %27 = sext i32 %16 to i64
  %28 = getelementptr ptr, ptr %14, i64 %27
  br label %.lr.ph.i.i.i.i

.lr.ph.i.i.i.i:                                   ; preds = %_ZN7QStringC2ERKS_.exit.i.i.i.i, %.lr.ph.i.preheader.i.i.i
  %.010.i.i.i.i = phi ptr [ %34, %_ZN7QStringC2ERKS_.exit.i.i.i.i ], [ %28, %.lr.ph.i.preheader.i.i.i ]
  %.079.i.i.i.i = phi ptr [ %35, %_ZN7QStringC2ERKS_.exit.i.i.i.i ], [ %26, %.lr.ph.i.preheader.i.i.i ]
  %29 = load ptr, ptr %.079.i.i.i.i, align 8
  store ptr %29, ptr %.010.i.i.i.i, align 8
  %30 = load atomic i32, ptr %29 monotonic, align 4
  %31 = add i32 %30, -1
  %or.cond.not.i.i.i.i.i.i = icmp ult i32 %31, -2
  br i1 %or.cond.not.i.i.i.i.i.i, label %32, label %_ZN7QStringC2ERKS_.exit.i.i.i.i

32:                                               ; preds = %.lr.ph.i.i.i.i
  %33 = atomicrmw add ptr %29, i32 1 seq_cst, align 4
  br label %_ZN7QStringC2ERKS_.exit.i.i.i.i

_ZN7QStringC2ERKS_.exit.i.i.i.i:                  ; preds = %32, %.lr.ph.i.i.i.i
  %34 = getelementptr inbounds i8, ptr %.010.i.i.i.i, i64 8
  %35 = getelementptr inbounds i8, ptr %.079.i.i.i.i, i64 8
  %.not.i.i.i.i = icmp eq ptr %34, %20
  br i1 %.not.i.i.i.i, label %_ZN8RichEnumC2ERKS_.exit, label %.lr.ph.i.i.i.i, !llvm.loop !10

36:                                               ; preds = %9
  %37 = landingpad { ptr, i32 }
          cleanup
  tail call void @_ZN13RichParameterD2Ev(ptr noundef nonnull align 8 dereferenceable(56) %2) #11
  br label %.body

_ZN8RichEnumC2ERKS_.exit:                         ; preds = %_ZN7QStringC2ERKS_.exit.i.i.i.i, %.noexc.i, %_ZN9QtPrivate8RefCount3refEv.exit.i.i.i, %_ZN9QtPrivate8RefCount3refEv.exit.thread.i.i.i
  ret ptr %2

38:                                               ; preds = %1
  %39 = landingpad { ptr, i32 }
          cleanup
  br label %.body

.body:                                            ; preds = %36, %38
  %eh.lpad-body = phi { ptr, i32 } [ %39, %38 ], [ %37, %36 ]
  tail call void @_ZdlPv(ptr noundef nonnull %2) #12
  resume { ptr, i32 } %eh.lpad-body
}